; Function Attrs: mustprogress nounwind uwtable
define dso_local void @_ZN4node6timers11BindingData17ScheduleTimerImplEPS1_l(ptr nocapture noundef readonly %data, i64 noundef %duration) local_unnamed_addr #3 align 2 {
entry:
  %realm_.i = getelementptr inbounds i8, ptr %data, i64 16
  %0 = load ptr, ptr %realm_.i, align 8
  %env_.i.i = getelementptr inbounds i8, ptr %0, i64 176
  %1 = load ptr, ptr %env_.i.i, align 8
  tail call void @_ZN4node11Environment13ScheduleTimerEl(ptr noundef nonnull align 8 dereferenceable(2872) %1, i64 noundef %duration) #15
  ret void
}